; Function Attrs: mustprogress uwtable
define void @_ZN5Yosys5RTLIL17const_reduce_xnorERKNS0_5ConstES3_bbi(ptr dead_on_unwind noalias writable sret(%"struct.Yosys::RTLIL::Const") align 8 %0, ptr noundef nonnull align 8 dereferenceable(40) %1, ptr noundef nonnull readnone align 8 captures(none) dereferenceable(40) %2, i1 noundef zeroext %3, i1 noundef zeroext %4, i32 noundef %5) local_unnamed_addr #3 personality ptr @__gxx_personality_v0 {
  %7 = alloca %"class.Yosys::RTLIL::Const::const_iterator", align 8
  %8 = alloca %"class.Yosys::RTLIL::Const::const_iterator", align 8
  tail call fastcc void @_ZN5YosysL20logic_reduce_wrapperENS_5RTLIL5StateEPFS1_S1_S1_ERKNS0_5ConstEi(ptr dead_on_unwind noalias writable align 8 %0, i8 noundef zeroext 0, ptr noundef nonnull @_ZN5YosysL9logic_xorENS_5RTLIL5StateES1_, ptr noundef nonnull align 8 dereferenceable(40) %1, i32 noundef %5)
  %9 = invoke noundef zeroext i1 @_ZNK5Yosys5RTLIL5Const5emptyEv(ptr noundef nonnull align 8 dereferenceable(40) %0)
          to label %10 unwind label %18

10:                                               ; preds = %6
  br i1 %9, label %28, label %11

11:                                               ; preds = %10
  call void @llvm.lifetime.start.p0(i64 16, ptr nonnull %8) #19
  store ptr %0, ptr %8, align 8
  %12 = getelementptr inbounds nuw i8, ptr %8, i64 8
  store i64 0, ptr %12, align 8
  %13 = invoke noundef zeroext i8 @_ZNK5Yosys5RTLIL5Const14const_iteratordeEv(ptr noundef nonnull align 8 dereferenceable(16) %8)
          to label %14 unwind label %18

14:                                               ; preds = %11
  call void @llvm.lifetime.end.p0(i64 16, ptr nonnull %8) #19
  %15 = icmp eq i8 %13, 0
  br i1 %15, label %16, label %20

16:                                               ; preds = %14
  %17 = invoke noundef nonnull align 8 dereferenceable(24) ptr @_ZN5Yosys5RTLIL5Const4bitsEv(ptr noundef nonnull align 8 dereferenceable(40) %0)
          to label %.sink.split unwind label %18

18:                                               ; preds = %20, %11, %25, %16, %6
  %19 = landingpad { ptr, i32 }
          cleanup
  call void @_ZN5Yosys5RTLIL5ConstD1Ev(ptr noundef nonnull align 8 dereferenceable(40) %0) #19
  resume { ptr, i32 } %19

20:                                               ; preds = %14
  call void @llvm.lifetime.start.p0(i64 16, ptr nonnull %7) #19
  store ptr %0, ptr %7, align 8
  %21 = getelementptr inbounds nuw i8, ptr %7, i64 8
  store i64 0, ptr %21, align 8
  %22 = invoke noundef zeroext i8 @_ZNK5Yosys5RTLIL5Const14const_iteratordeEv(ptr noundef nonnull align 8 dereferenceable(16) %7)
          to label %23 unwind label %18

23:                                               ; preds = %20
  call void @llvm.lifetime.end.p0(i64 16, ptr nonnull %7) #19
  %24 = icmp eq i8 %22, 1
  br i1 %24, label %25, label %28

25:                                               ; preds = %23
  %26 = invoke noundef nonnull align 8 dereferenceable(24) ptr @_ZN5Yosys5RTLIL5Const4bitsEv(ptr noundef nonnull align 8 dereferenceable(40) %0)
          to label %.sink.split unwind label %18

.sink.split:                                      ; preds = %25, %16
  %.sink6 = phi ptr [ %17, %16 ], [ %26, %25 ]
  %.sink = phi i8 [ 1, %16 ], [ 0, %25 ]
  %27 = load ptr, ptr %.sink6, align 8, !tbaa !28
  store i8 %.sink, ptr %27, align 1, !tbaa !11
  br label %28

28:                                               ; preds = %.sink.split, %10, %23
  ret void
}